target datalayout = "e-m:e-p270:32:32-p271:32:32-p272:64:64-i64:64-i128:128-f80:128-n8:16:32:64-S128"
target triple = "x86_64-pc-linux-gnu"

%struct.sp_int = type { i16, i16, [129 x i64] }

; Function Attrs: nounwind uwtable
define internal void @sp_clamp_ct(ptr noundef %0) #0 {
  %2 = alloca ptr, align 8
  %3 = alloca i32, align 4
  %4 = alloca i16, align 2
  %5 = alloca i16, align 2
  store ptr %0, ptr %2, align 8, !tbaa !3
  call void @llvm.lifetime.start.p0(i64 4, ptr %3) #8
  call void @llvm.lifetime.start.p0(i64 2, ptr %4) #8
  %6 = load ptr, ptr %2, align 8, !tbaa !3
  %7 = getelementptr inbounds nuw %struct.sp_int, ptr %6, i32 0, i32 0
  %8 = load i16, ptr %7, align 8, !tbaa !15
  store i16 %8, ptr %4, align 2, !tbaa !32
  call void @llvm.lifetime.start.p0(i64 2, ptr %5) #8
  store i16 -1, ptr %5, align 2, !tbaa !32
  %9 = load ptr, ptr %2, align 8, !tbaa !3
  %10 = getelementptr inbounds nuw %struct.sp_int, ptr %9, i32 0, i32 0
  %11 = load i16, ptr %10, align 8, !tbaa !15
  %12 = zext i16 %11 to i32
  %13 = sub nsw i32 %12, 1
  store i32 %13, ptr %3, align 4, !tbaa !8
  br label %14

14:                                               ; preds = %48, %1
  %15 = load i32, ptr %3, align 4, !tbaa !8
  %16 = icmp sge i32 %15, 0
  br i1 %16, label %17, label %51

17:                                               ; preds = %14
  %18 = load i16, ptr %4, align 2, !tbaa !32
  %19 = zext i16 %18 to i32
  %20 = load ptr, ptr %2, align 8, !tbaa !3
  %21 = getelementptr inbounds nuw %struct.sp_int, ptr %20, i32 0, i32 2
  %22 = load i32, ptr %3, align 4, !tbaa !8
  %23 = sext i32 %22 to i64
  %24 = getelementptr inbounds [129 x i64], ptr %21, i64 0, i64 %23
  %25 = load i64, ptr %24, align 8, !tbaa !16
  %26 = icmp eq i64 %25, 0
  %27 = zext i1 %26 to i32
  %28 = load i16, ptr %5, align 2, !tbaa !32
  %29 = zext i16 %28 to i32
  %30 = and i32 %27, %29
  %31 = sub nsw i32 %19, %30
  %32 = trunc i32 %31 to i16
  store i16 %32, ptr %4, align 2, !tbaa !32
  %33 = load ptr, ptr %2, align 8, !tbaa !3
  %34 = getelementptr inbounds nuw %struct.sp_int, ptr %33, i32 0, i32 2
  %35 = load i32, ptr %3, align 4, !tbaa !8
  %36 = sext i32 %35 to i64
  %37 = getelementptr inbounds [129 x i64], ptr %34, i64 0, i64 %36
  %38 = load i64, ptr %37, align 8, !tbaa !16
  %39 = icmp eq i64 %38, 0
  %40 = zext i1 %39 to i32
  %41 = sub nsw i32 0, %40
  %42 = trunc i32 %41 to i16
  %43 = zext i16 %42 to i32
  %44 = load i16, ptr %5, align 2, !tbaa !32
  %45 = zext i16 %44 to i32
  %46 = and i32 %45, %43
  %47 = trunc i32 %46 to i16
  store i16 %47, ptr %5, align 2, !tbaa !32
  br label %48

48:                                               ; preds = %17
  %49 = load i32, ptr %3, align 4, !tbaa !8
  %50 = add nsw i32 %49, -1
  store i32 %50, ptr %3, align 4, !tbaa !8
  br label %14, !llvm.loop !75

51:                                               ; preds = %14
  %52 = load i16, ptr %4, align 2, !tbaa !32
  %53 = load ptr, ptr %2, align 8, !tbaa !3
  %54 = getelementptr inbounds nuw %struct.sp_int, ptr %53, i32 0, i32 0
  store i16 %52, ptr %54, align 8, !tbaa !15
  call void @llvm.lifetime.end.p0(i64 2, ptr %5) #8
  call void @llvm.lifetime.end.p0(i64 2, ptr %4) #8
  call void @llvm.lifetime.end.p0(i64 4, ptr %3) #8
  ret void
}

; Function Attrs: nounwind uwtable
define i32 @sp_read_unsigned_bin(ptr noundef %0, ptr noundef %1, i32 noundef %2) #0 {
  %4 = alloca ptr, align 8
  %5 = alloca ptr, align 8
  %6 = alloca i32, align 4
  %7 = alloca i32, align 4
  %8 = alloca i32, align 4
  %9 = alloca i32, align 4
  %10 = alloca ptr, align 8
  store ptr %0, ptr %4, align 8, !tbaa !3
  store ptr %1, ptr %5, align 8, !tbaa !24
  store i32 %2, ptr %6, align 4, !tbaa !8
  call void @llvm.lifetime.start.p0(i64 4, ptr %7) #8
  store i32 0, ptr %7, align 4, !tbaa !8
  %11 = load ptr, ptr %4, align 8, !tbaa !3
  %12 = icmp eq ptr %11, null
  br i1 %12, label %19, label %13

13:                                               ; preds = %3
  %14 = load ptr, ptr %5, align 8, !tbaa !24
  %15 = icmp eq ptr %14, null
  br i1 %15, label %16, label %20

16:                                               ; preds = %13
  %17 = load i32, ptr %6, align 4, !tbaa !8
  %18 = icmp ugt i32 %17, 0
  br i1 %18, label %19, label %20

19:                                               ; preds = %16, %3
  store i32 -98, ptr %7, align 4, !tbaa !8
  br label %20

20:                                               ; preds = %19, %16, %13
  %21 = load i32, ptr %7, align 4, !tbaa !8
  %22 = icmp eq i32 %21, 0
  br i1 %22, label %23, label %32

23:                                               ; preds = %20
  %24 = load i32, ptr %6, align 4, !tbaa !8
  %25 = load ptr, ptr %4, align 8, !tbaa !3
  %26 = getelementptr inbounds nuw %struct.sp_int, ptr %25, i32 0, i32 1
  %27 = load i16, ptr %26, align 2, !tbaa !12
  %28 = zext i16 %27 to i32
  %29 = mul i32 %28, 8
  %30 = icmp ugt i32 %24, %29
  br i1 %30, label %31, label %32

31:                                               ; preds = %23
  store i32 -98, ptr %7, align 4, !tbaa !8
  br label %32

32:                                               ; preds = %31, %23, %20
  %33 = load i32, ptr %7, align 4, !tbaa !8
  %34 = icmp eq i32 %33, 0
  br i1 %34, label %35, label %220

35:                                               ; preds = %32
  call void @llvm.lifetime.start.p0(i64 4, ptr %8) #8
  call void @llvm.lifetime.start.p0(i64 4, ptr %9) #8
  store i32 0, ptr %9, align 4, !tbaa !8
  %36 = load i32, ptr %6, align 4, !tbaa !8
  %37 = add i32 %36, 8
  %38 = sub i32 %37, 1
  %39 = udiv i32 %38, 8
  %40 = trunc i32 %39 to i16
  %41 = load ptr, ptr %4, align 8, !tbaa !3
  %42 = getelementptr inbounds nuw %struct.sp_int, ptr %41, i32 0, i32 0
  store i16 %40, ptr %42, align 8, !tbaa !15
  %43 = load i32, ptr %6, align 4, !tbaa !8
  %44 = sub i32 %43, 1
  store i32 %44, ptr %8, align 4, !tbaa !8
  br label %45

45:                                               ; preds = %127, %35
  %46 = load i32, ptr %8, align 4, !tbaa !8
  %47 = icmp sge i32 %46, 7
  br i1 %47, label %48, label %130

48:                                               ; preds = %45
  %49 = load ptr, ptr %5, align 8, !tbaa !24
  %50 = load i32, ptr %8, align 4, !tbaa !8
  %51 = sub nsw i32 %50, 0
  %52 = sext i32 %51 to i64
  %53 = getelementptr inbounds i8, ptr %49, i64 %52
  %54 = load i8, ptr %53, align 1, !tbaa !26
  %55 = zext i8 %54 to i64
  %56 = shl i64 %55, 0
  %57 = load ptr, ptr %5, align 8, !tbaa !24
  %58 = load i32, ptr %8, align 4, !tbaa !8
  %59 = sub nsw i32 %58, 1
  %60 = sext i32 %59 to i64
  %61 = getelementptr inbounds i8, ptr %57, i64 %60
  %62 = load i8, ptr %61, align 1, !tbaa !26
  %63 = zext i8 %62 to i64
  %64 = shl i64 %63, 8
  %65 = or i64 %56, %64
  %66 = load ptr, ptr %5, align 8, !tbaa !24
  %67 = load i32, ptr %8, align 4, !tbaa !8
  %68 = sub nsw i32 %67, 2
  %69 = sext i32 %68 to i64
  %70 = getelementptr inbounds i8, ptr %66, i64 %69
  %71 = load i8, ptr %70, align 1, !tbaa !26
  %72 = zext i8 %71 to i64
  %73 = shl i64 %72, 16
  %74 = or i64 %65, %73
  %75 = load ptr, ptr %5, align 8, !tbaa !24
  %76 = load i32, ptr %8, align 4, !tbaa !8
  %77 = sub nsw i32 %76, 3
  %78 = sext i32 %77 to i64
  %79 = getelementptr inbounds i8, ptr %75, i64 %78
  %80 = load i8, ptr %79, align 1, !tbaa !26
  %81 = zext i8 %80 to i64
  %82 = shl i64 %81, 24
  %83 = or i64 %74, %82
  %84 = load ptr, ptr %5, align 8, !tbaa !24
  %85 = load i32, ptr %8, align 4, !tbaa !8
  %86 = sub nsw i32 %85, 4
  %87 = sext i32 %86 to i64
  %88 = getelementptr inbounds i8, ptr %84, i64 %87
  %89 = load i8, ptr %88, align 1, !tbaa !26
  %90 = zext i8 %89 to i64
  %91 = shl i64 %90, 32
  %92 = or i64 %83, %91
  %93 = load ptr, ptr %5, align 8, !tbaa !24
  %94 = load i32, ptr %8, align 4, !tbaa !8
  %95 = sub nsw i32 %94, 5
  %96 = sext i32 %95 to i64
  %97 = getelementptr inbounds i8, ptr %93, i64 %96
  %98 = load i8, ptr %97, align 1, !tbaa !26
  %99 = zext i8 %98 to i64
  %100 = shl i64 %99, 40
  %101 = or i64 %92, %100
  %102 = load ptr, ptr %5, align 8, !tbaa !24
  %103 = load i32, ptr %8, align 4, !tbaa !8
  %104 = sub nsw i32 %103, 6
  %105 = sext i32 %104 to i64
  %106 = getelementptr inbounds i8, ptr %102, i64 %105
  %107 = load i8, ptr %106, align 1, !tbaa !26
  %108 = zext i8 %107 to i64
  %109 = shl i64 %108, 48
  %110 = or i64 %101, %109
  %111 = load ptr, ptr %5, align 8, !tbaa !24
  %112 = load i32, ptr %8, align 4, !tbaa !8
  %113 = sub nsw i32 %112, 7
  %114 = sext i32 %113 to i64
  %115 = getelementptr inbounds i8, ptr %111, i64 %114
  %116 = load i8, ptr %115, align 1, !tbaa !26
  %117 = zext i8 %116 to i64
  %118 = shl i64 %117, 56
  %119 = or i64 %110, %118
  %120 = load ptr, ptr %4, align 8, !tbaa !3
  %121 = getelementptr inbounds nuw %struct.sp_int, ptr %120, i32 0, i32 2
  %122 = load i32, ptr %9, align 4, !tbaa !8
  %123 = sext i32 %122 to i64
  %124 = getelementptr inbounds [129 x i64], ptr %121, i64 0, i64 %123
  store i64 %119, ptr %124, align 8, !tbaa !16
  %125 = load i32, ptr %9, align 4, !tbaa !8
  %126 = add nsw i32 %125, 1
  store i32 %126, ptr %9, align 4, !tbaa !8
  br label %127

127:                                              ; preds = %48
  %128 = load i32, ptr %8, align 4, !tbaa !8
  %129 = sub nsw i32 %128, 8
  store i32 %129, ptr %8, align 4, !tbaa !8
  br label %45, !llvm.loop !123

130:                                              ; preds = %45
  %131 = load i32, ptr %8, align 4, !tbaa !8
  %132 = icmp sge i32 %131, 0
  br i1 %132, label %133, label %218

133:                                              ; preds = %130
  call void @llvm.lifetime.start.p0(i64 8, ptr %10) #8
  %134 = load ptr, ptr %4, align 8, !tbaa !3
  %135 = getelementptr inbounds nuw %struct.sp_int, ptr %134, i32 0, i32 2
  %136 = getelementptr inbounds [129 x i64], ptr %135, i64 0, i64 0
  store ptr %136, ptr %10, align 8, !tbaa !24
  %137 = load ptr, ptr %4, align 8, !tbaa !3
  %138 = getelementptr inbounds nuw %struct.sp_int, ptr %137, i32 0, i32 2
  %139 = load ptr, ptr %4, align 8, !tbaa !3
  %140 = getelementptr inbounds nuw %struct.sp_int, ptr %139, i32 0, i32 0
  %141 = load i16, ptr %140, align 8, !tbaa !15
  %142 = zext i16 %141 to i32
  %143 = sub nsw i32 %142, 1
  %144 = sext i32 %143 to i64
  %145 = getelementptr inbounds [129 x i64], ptr %138, i64 0, i64 %144
  store i64 0, ptr %145, align 8, !tbaa !16
  %146 = load i32, ptr %8, align 4, !tbaa !8
  switch i32 %146, label %217 [
    i32 6, label %147
    i32 5, label %157
    i32 4, label %167
    i32 3, label %177
    i32 2, label %187
    i32 1, label %197
    i32 0, label %207
  ]

147:                                              ; preds = %133
  %148 = load ptr, ptr %5, align 8, !tbaa !24
  %149 = getelementptr inbounds i8, ptr %148, i64 6
  %150 = load i8, ptr %149, align 1, !tbaa !26
  %151 = load ptr, ptr %10, align 8, !tbaa !24
  %152 = load i32, ptr %6, align 4, !tbaa !8
  %153 = sub i32 %152, 1
  %154 = sub i32 %153, 6
  %155 = zext i32 %154 to i64
  %156 = getelementptr inbounds nuw i8, ptr %151, i64 %155
  store i8 %150, ptr %156, align 1, !tbaa !26
  br label %157

157:                                              ; preds = %133, %147
  %158 = load ptr, ptr %5, align 8, !tbaa !24
  %159 = getelementptr inbounds i8, ptr %158, i64 5
  %160 = load i8, ptr %159, align 1, !tbaa !26
  %161 = load ptr, ptr %10, align 8, !tbaa !24
  %162 = load i32, ptr %6, align 4, !tbaa !8
  %163 = sub i32 %162, 1
  %164 = sub i32 %163, 5
  %165 = zext i32 %164 to i64
  %166 = getelementptr inbounds nuw i8, ptr %161, i64 %165
  store i8 %160, ptr %166, align 1, !tbaa !26
  br label %167

167:                                              ; preds = %133, %157
  %168 = load ptr, ptr %5, align 8, !tbaa !24
  %169 = getelementptr inbounds i8, ptr %168, i64 4
  %170 = load i8, ptr %169, align 1, !tbaa !26
  %171 = load ptr, ptr %10, align 8, !tbaa !24
  %172 = load i32, ptr %6, align 4, !tbaa !8
  %173 = sub i32 %172, 1
  %174 = sub i32 %173, 4
  %175 = zext i32 %174 to i64
  %176 = getelementptr inbounds nuw i8, ptr %171, i64 %175
  store i8 %170, ptr %176, align 1, !tbaa !26
  br label %177

177:                                              ; preds = %133, %167
  %178 = load ptr, ptr %5, align 8, !tbaa !24
  %179 = getelementptr inbounds i8, ptr %178, i64 3
  %180 = load i8, ptr %179, align 1, !tbaa !26
  %181 = load ptr, ptr %10, align 8, !tbaa !24
  %182 = load i32, ptr %6, align 4, !tbaa !8
  %183 = sub i32 %182, 1
  %184 = sub i32 %183, 3
  %185 = zext i32 %184 to i64
  %186 = getelementptr inbounds nuw i8, ptr %181, i64 %185
  store i8 %180, ptr %186, align 1, !tbaa !26
  br label %187

187:                                              ; preds = %133, %177
  %188 = load ptr, ptr %5, align 8, !tbaa !24
  %189 = getelementptr inbounds i8, ptr %188, i64 2
  %190 = load i8, ptr %189, align 1, !tbaa !26
  %191 = load ptr, ptr %10, align 8, !tbaa !24
  %192 = load i32, ptr %6, align 4, !tbaa !8
  %193 = sub i32 %192, 1
  %194 = sub i32 %193, 2
  %195 = zext i32 %194 to i64
  %196 = getelementptr inbounds nuw i8, ptr %191, i64 %195
  store i8 %190, ptr %196, align 1, !tbaa !26
  br label %197

197:                                              ; preds = %133, %187
  %198 = load ptr, ptr %5, align 8, !tbaa !24
  %199 = getelementptr inbounds i8, ptr %198, i64 1
  %200 = load i8, ptr %199, align 1, !tbaa !26
  %201 = load ptr, ptr %10, align 8, !tbaa !24
  %202 = load i32, ptr %6, align 4, !tbaa !8
  %203 = sub i32 %202, 1
  %204 = sub i32 %203, 1
  %205 = zext i32 %204 to i64
  %206 = getelementptr inbounds nuw i8, ptr %201, i64 %205
  store i8 %200, ptr %206, align 1, !tbaa !26
  br label %207

207:                                              ; preds = %133, %197
  %208 = load ptr, ptr %5, align 8, !tbaa !24
  %209 = getelementptr inbounds i8, ptr %208, i64 0
  %210 = load i8, ptr %209, align 1, !tbaa !26
  %211 = load ptr, ptr %10, align 8, !tbaa !24
  %212 = load i32, ptr %6, align 4, !tbaa !8
  %213 = sub i32 %212, 1
  %214 = sub i32 %213, 0
  %215 = zext i32 %214 to i64
  %216 = getelementptr inbounds nuw i8, ptr %211, i64 %215
  store i8 %210, ptr %216, align 1, !tbaa !26
  br label %217

217:                                              ; preds = %207, %133
  call void @llvm.lifetime.end.p0(i64 8, ptr %10) #8
  br label %218

218:                                              ; preds = %217, %130
  %219 = load ptr, ptr %4, align 8, !tbaa !3
  call void @sp_clamp_ct(ptr noundef %219)
  call void @llvm.lifetime.end.p0(i64 4, ptr %9) #8
  call void @llvm.lifetime.end.p0(i64 4, ptr %8) #8
  br label %220

220:                                              ; preds = %218, %32
  %221 = load i32, ptr %7, align 4, !tbaa !8
  call void @llvm.lifetime.end.p0(i64 4, ptr %7) #8
  ret i32 %221
}