; Function Attrs: nofree norecurse nosync nounwind memory(argmem: readwrite) uwtable
define range(i32 -98, 1) i32 @sp_read_unsigned_bin(ptr noundef captures(address_is_null) %0, ptr noundef readonly captures(address_is_null) %1, i32 noundef %2) local_unnamed_addr #8 {
  %4 = icmp eq ptr %0, null
  br i1 %4, label %.thread62, label %5

5:                                                ; preds = %3
  %6 = icmp eq ptr %1, null
  %7 = icmp ne i32 %2, 0
  %or.cond = and i1 %6, %7
  br i1 %or.cond, label %.thread62, label %8

8:                                                ; preds = %5
  %9 = getelementptr inbounds nuw i8, ptr %0, i64 2
  %10 = load i16, ptr %9, align 2, !tbaa !10
  %11 = zext i16 %10 to i32
  %12 = shl nuw nsw i32 %11, 3
  %13 = icmp ugt i32 %2, %12
  br i1 %13, label %.thread62, label %14

14:                                               ; preds = %8
  %15 = add nuw nsw i32 %2, 7
  %16 = lshr i32 %15, 3
  %17 = trunc i32 %16 to i16
  store i16 %17, ptr %0, align 8, !tbaa !12
  %18 = add nsw i32 %2, -1
  %19 = icmp samesign ugt i32 %2, 7
  br i1 %19, label %.lr.ph, label %._crit_edge

.lr.ph:                                           ; preds = %14
  %20 = getelementptr inbounds nuw i8, ptr %0, i64 8
  %21 = zext nneg i32 %18 to i64
  br label %22

22:                                               ; preds = %.lr.ph, %22
  %indvars.iv69 = phi i64 [ %21, %.lr.ph ], [ %indvars.iv.next70, %22 ]
  %indvars.iv = phi i64 [ 0, %.lr.ph ], [ %indvars.iv.next, %22 ]
  %23 = getelementptr inbounds nuw i8, ptr %1, i64 %indvars.iv69
  %24 = load i8, ptr %23, align 1, !tbaa !13
  %25 = zext i8 %24 to i64
  %26 = getelementptr i8, ptr %23, i64 -1
  %27 = load i8, ptr %26, align 1, !tbaa !13
  %28 = zext i8 %27 to i64
  %29 = shl nuw nsw i64 %28, 8
  %30 = or disjoint i64 %29, %25
  %31 = getelementptr i8, ptr %23, i64 -2
  %32 = load i8, ptr %31, align 1, !tbaa !13
  %33 = zext i8 %32 to i64
  %34 = shl nuw nsw i64 %33, 16
  %35 = or disjoint i64 %30, %34
  %36 = getelementptr i8, ptr %23, i64 -3
  %37 = load i8, ptr %36, align 1, !tbaa !13
  %38 = zext i8 %37 to i64
  %39 = shl nuw nsw i64 %38, 24
  %40 = or disjoint i64 %35, %39
  %41 = getelementptr i8, ptr %23, i64 -4
  %42 = load i8, ptr %41, align 1, !tbaa !13
  %43 = zext i8 %42 to i64
  %44 = shl nuw nsw i64 %43, 32
  %45 = or disjoint i64 %40, %44
  %46 = getelementptr i8, ptr %23, i64 -5
  %47 = load i8, ptr %46, align 1, !tbaa !13
  %48 = zext i8 %47 to i64
  %49 = shl nuw nsw i64 %48, 40
  %50 = or i64 %45, %49
  %51 = getelementptr i8, ptr %23, i64 -6
  %52 = load i8, ptr %51, align 1, !tbaa !13
  %53 = zext i8 %52 to i64
  %54 = shl nuw nsw i64 %53, 48
  %55 = or i64 %50, %54
  %56 = getelementptr i8, ptr %23, i64 -7
  %57 = load i8, ptr %56, align 1, !tbaa !13
  %58 = zext i8 %57 to i64
  %59 = shl nuw i64 %58, 56
  %60 = or i64 %55, %59
  %61 = getelementptr inbounds nuw [129 x i64], ptr %20, i64 0, i64 %indvars.iv
  store i64 %60, ptr %61, align 8, !tbaa !8
  %indvars.iv.next = add nuw nsw i64 %indvars.iv, 1
  %indvars.iv.next70 = add nsw i64 %indvars.iv69, -8
  %62 = icmp samesign ugt i64 %indvars.iv69, 14
  br i1 %62, label %22, label %._crit_edge.loopexit, !llvm.loop !109

._crit_edge.loopexit:                             ; preds = %22
  %63 = trunc nsw i64 %indvars.iv.next70 to i32
  br label %._crit_edge

._crit_edge:                                      ; preds = %._crit_edge.loopexit, %14
  %.060.lcssa = phi i32 [ %18, %14 ], [ %63, %._crit_edge.loopexit ]
  %64 = icmp sgt i32 %.060.lcssa, -1
  br i1 %64, label %65, label %110

65:                                               ; preds = %._crit_edge
  %66 = getelementptr inbounds nuw i8, ptr %0, i64 8
  %.mask = and i32 %16, 65535
  %67 = zext nneg i32 %.mask to i64
  %68 = add nsw i64 %67, -1
  %69 = getelementptr inbounds [129 x i64], ptr %66, i64 0, i64 %68
  store i64 0, ptr %69, align 8, !tbaa !8
  switch i32 %.060.lcssa, label %default.unreachable [
    i32 6, label %70
    i32 5, label %76
    i32 4, label %82
    i32 3, label %88
    i32 2, label %94
    i32 1, label %100
    i32 0, label %106
  ]

70:                                               ; preds = %65
  %71 = getelementptr inbounds nuw i8, ptr %1, i64 6
  %72 = load i8, ptr %71, align 1, !tbaa !13
  %73 = add i32 %2, -7
  %74 = zext i32 %73 to i64
  %75 = getelementptr inbounds nuw i8, ptr %66, i64 %74
  store i8 %72, ptr %75, align 1, !tbaa !13
  br label %76

76:                                               ; preds = %70, %65
  %77 = getelementptr inbounds nuw i8, ptr %1, i64 5
  %78 = load i8, ptr %77, align 1, !tbaa !13
  %79 = add i32 %2, -6
  %80 = zext i32 %79 to i64
  %81 = getelementptr inbounds nuw i8, ptr %66, i64 %80
  store i8 %78, ptr %81, align 1, !tbaa !13
  br label %82

82:                                               ; preds = %76, %65
  %83 = getelementptr inbounds nuw i8, ptr %1, i64 4
  %84 = load i8, ptr %83, align 1, !tbaa !13
  %85 = add i32 %2, -5
  %86 = zext i32 %85 to i64
  %87 = getelementptr inbounds nuw i8, ptr %66, i64 %86
  store i8 %84, ptr %87, align 1, !tbaa !13
  br label %88

88:                                               ; preds = %82, %65
  %89 = getelementptr inbounds nuw i8, ptr %1, i64 3
  %90 = load i8, ptr %89, align 1, !tbaa !13
  %91 = add i32 %2, -4
  %92 = zext i32 %91 to i64
  %93 = getelementptr inbounds nuw i8, ptr %66, i64 %92
  store i8 %90, ptr %93, align 1, !tbaa !13
  br label %94

94:                                               ; preds = %88, %65
  %95 = getelementptr inbounds nuw i8, ptr %1, i64 2
  %96 = load i8, ptr %95, align 1, !tbaa !13
  %97 = add i32 %2, -3
  %98 = zext i32 %97 to i64
  %99 = getelementptr inbounds nuw i8, ptr %66, i64 %98
  store i8 %96, ptr %99, align 1, !tbaa !13
  br label %100

100:                                              ; preds = %94, %65
  %101 = getelementptr inbounds nuw i8, ptr %1, i64 1
  %102 = load i8, ptr %101, align 1, !tbaa !13
  %103 = add i32 %2, -2
  %104 = zext i32 %103 to i64
  %105 = getelementptr inbounds nuw i8, ptr %66, i64 %104
  store i8 %102, ptr %105, align 1, !tbaa !13
  br label %106

106:                                              ; preds = %100, %65
  %107 = load i8, ptr %1, align 1, !tbaa !13
  %108 = zext i32 %18 to i64
  %109 = getelementptr inbounds nuw i8, ptr %66, i64 %108
  store i8 %107, ptr %109, align 1, !tbaa !13
  br label %110

default.unreachable:                              ; preds = %65
  unreachable

110:                                              ; preds = %106, %._crit_edge
  %.not.i = icmp eq i16 %17, 0
  br i1 %.not.i, label %sp_clamp_ct.exit, label %.lr.ph.i

.lr.ph.i:                                         ; preds = %110
  %111 = getelementptr inbounds nuw i8, ptr %0, i64 8
  %.mask65 = and i32 %16, 65535
  %112 = zext nneg i32 %.mask65 to i64
  br label %113

113:                                              ; preds = %113, %.lr.ph.i
  %indvars.iv.i = phi i64 [ %112, %.lr.ph.i ], [ %indvars.iv.next.i, %113 ]
  %.016.i = phi i16 [ -1, %.lr.ph.i ], [ %120, %113 ]
  %.01215.i = phi i16 [ %17, %.lr.ph.i ], [ %119, %113 ]
  %indvars.iv.next.i = add nsw i64 %indvars.iv.i, -1
  %114 = getelementptr inbounds nuw [129 x i64], ptr %111, i64 0, i64 %indvars.iv.next.i
  %115 = load i64, ptr %114, align 8, !tbaa !8
  %116 = icmp eq i64 %115, 0
  %117 = and i16 %.016.i, 1
  %118 = select i1 %116, i16 %117, i16 0
  %119 = sub i16 %.01215.i, %118
  %120 = select i1 %116, i16 %.016.i, i16 0
  %121 = icmp samesign ugt i64 %indvars.iv.i, 1
  br i1 %121, label %113, label %sp_clamp_ct.exit, !llvm.loop !54

sp_clamp_ct.exit:                                 ; preds = %113, %110
  %.012.lcssa.i = phi i16 [ 0, %110 ], [ %119, %113 ]
  store i16 %.012.lcssa.i, ptr %0, align 8, !tbaa !12
  br label %.thread62

.thread62:                                        ; preds = %8, %5, %3, %sp_clamp_ct.exit
  %.164 = phi i32 [ 0, %sp_clamp_ct.exit ], [ -98, %3 ], [ -98, %5 ], [ -98, %8 ]
  ret i32 %.164
}